; Function Attrs: mustprogress uwtable
define noundef zeroext i1 @Z3_model_has_interp(ptr noundef %0, ptr noundef %1, ptr noundef %2) local_unnamed_addr #3 personality ptr @__gxx_personality_v0 {
  %4 = atomicrmw xchg ptr @g_z3_log_enabled, i8 0 seq_cst, align 1
  %5 = trunc i8 %4 to i1
  br i1 %5, label %6, label %19

6:                                                ; preds = %3
  invoke void @_Z23log_Z3_model_has_interpP11_Z3_contextP9_Z3_modelP13_Z3_func_decl(ptr noundef %0, ptr noundef %1, ptr noundef %2)
          to label %19 unwind label %.thread

.thread:                                          ; preds = %6
  %7 = landingpad { ptr, i32 }
          cleanup
          catch ptr @_ZTI12z3_exception
  %8 = extractvalue { ptr, i32 } %7, 1
  br label %12

9:                                                ; preds = %22, %21
  %10 = landingpad { ptr, i32 }
          cleanup
          catch ptr @_ZTI12z3_exception
  %11 = extractvalue { ptr, i32 } %10, 1
  br i1 %5, label %12, label %_ZN10z3_log_ctxD2Ev.exit, !prof !175

12:                                               ; preds = %.thread, %9
  %13 = phi i32 [ %8, %.thread ], [ %11, %9 ]
  %14 = phi { ptr, i32 } [ %7, %.thread ], [ %10, %9 ]
  store atomic i8 1, ptr @g_z3_log_enabled seq_cst, align 1
  br label %_ZN10z3_log_ctxD2Ev.exit

_ZN10z3_log_ctxD2Ev.exit:                         ; preds = %9, %12
  %15 = phi i32 [ %11, %9 ], [ %13, %12 ]
  %16 = phi { ptr, i32 } [ %10, %9 ], [ %14, %12 ]
  %17 = tail call i32 @llvm.eh.typeid.for.p0(ptr nonnull @_ZTI12z3_exception) #20
  %18 = icmp eq i32 %15, %17
  br i1 %18, label %28, label %34

19:                                               ; preds = %6, %3
  %20 = icmp eq ptr %1, null
  br i1 %20, label %21, label %22

21:                                               ; preds = %19
  invoke void @_ZN3api7context14set_error_codeE13Z3_error_codePKc(ptr noundef nonnull align 8 dereferenceable(3056) %0, i32 noundef 3, ptr noundef nonnull @.str)
          to label %26 unwind label %9

22:                                               ; preds = %19
  %23 = getelementptr inbounds nuw i8, ptr %1, i64 24
  %24 = load ptr, ptr %23, align 8, !tbaa !159
  %25 = invoke noundef zeroext i1 @_ZNK10model_core18has_interpretationEP9func_decl(ptr noundef nonnull align 8 dereferenceable(96) %24, ptr noundef %2)
          to label %26 unwind label %9

26:                                               ; preds = %22, %21
  %.0 = phi i1 [ false, %21 ], [ %25, %22 ]
  br i1 %5, label %27, label %_ZN10z3_log_ctxD2Ev.exit17, !prof !174

27:                                               ; preds = %26
  store atomic i8 1, ptr @g_z3_log_enabled seq_cst, align 1
  br label %_ZN10z3_log_ctxD2Ev.exit17

28:                                               ; preds = %_ZN10z3_log_ctxD2Ev.exit
  %29 = extractvalue { ptr, i32 } %16, 0
  %30 = tail call ptr @__cxa_begin_catch(ptr %29) #20
  invoke void @_ZN3api7context16handle_exceptionER12z3_exception(ptr noundef nonnull align 8 dereferenceable(3056) %0, ptr noundef nonnull align 8 dereferenceable(8) %30)
          to label %31 unwind label %32

31:                                               ; preds = %28
  tail call void @__cxa_end_catch()
  br label %_ZN10z3_log_ctxD2Ev.exit17

32:                                               ; preds = %28
  %33 = landingpad { ptr, i32 }
          cleanup
  invoke void @__cxa_end_catch()
          to label %34 unwind label %35

_ZN10z3_log_ctxD2Ev.exit17:                       ; preds = %27, %26, %31
  %.1 = phi i1 [ false, %31 ], [ %.0, %26 ], [ %.0, %27 ]
  ret i1 %.1

34:                                               ; preds = %32, %_ZN10z3_log_ctxD2Ev.exit
  %.merged = phi { ptr, i32 } [ %16, %_ZN10z3_log_ctxD2Ev.exit ], [ %33, %32 ]
  resume { ptr, i32 } %.merged

35:                                               ; preds = %32
  %36 = landingpad { ptr, i32 }
          catch ptr null
  %37 = extractvalue { ptr, i32 } %36, 0
  tail call void @__clang_call_terminate(ptr %37) #21
  unreachable
}